#NO_APP
	.file	"main.c"
	.text
.Ltext0:
	.cfi_sections	.debug_frame
	.section	.text.startup,"ax",@progbits
	.align	2
	.globl	main
	.type	main, @function
main:
.LFB1:
	.file 1 "main.c"
	.loc 1 19 0
	.cfi_startproc
	link.w %fp,#0
	.cfi_offset 14, -8
	.cfi_def_cfa 14, 8
	movem.l #8252,-(%sp)
	.cfi_offset 2, -28
	.cfi_offset 10, -24
	.cfi_offset 11, -20
	.cfi_offset 12, -16
	.cfi_offset 13, -12
	.loc 1 20 0
	lea video_waitforvblank,%a2
	jsr (%a2)
.LVL0:
	.loc 1 21 0
	clr.l -(%sp)
	clr.l -(%sp)
	jsr video_setconfig
.LVL1:
	addq.l #8,%sp
	move.l #video_begin,%d2
	lea rect_drawrect,%a5
	lea video_commit,%a4
	lea video_flip,%a3
.L2:
.LBB4:
.LBB5:
	.loc 1 12 0 discriminator 1
	move.l %d2,%a0
	jsr (%a0)
.LVL2:
	.loc 1 13 0 discriminator 1
	move.l #65535,-(%sp)
	pea p0up
	jsr (%a5)
.LVL3:
	.loc 1 14 0 discriminator 1
	jsr (%a4)
.LVL4:
	.loc 1 15 0 discriminator 1
	jsr (%a2)
.LVL5:
	.loc 1 16 0 discriminator 1
	jsr (%a3)
.LVL6:
	addq.l #8,%sp
	.loc 1 12 0 discriminator 1
	move.l %d2,%a0
	jsr (%a0)
.LVL7:
	.loc 1 13 0 discriminator 1
	move.l #65535,-(%sp)
	pea p0up
	jsr (%a5)
.LVL8:
	.loc 1 14 0 discriminator 1
	jsr (%a4)
.LVL9:
	.loc 1 15 0 discriminator 1
	jsr (%a2)
.LVL10:
	.loc 1 16 0 discriminator 1
	jsr (%a3)
.LVL11:
	addq.l #8,%sp
	jra .L2
.LBE5:
.LBE4:
	.cfi_endproc
.LFE1:
	.size	main, .-main
	.data
	.align	2
	.type	p0up, @object
	.size	p0up, 16
p0up:
	.long	10
	.long	10
	.long	50
	.long	50
	.text
.Letext0:
	.file 2 "/home/daniel/coding/musasim/toolchains/inst/m68k-elf/m68k-elf/include/libunagipai/rect.h"
	.file 3 "/home/daniel/coding/musasim/toolchains/inst/m68k-elf/m68k-elf/include/libunagipai/video.h"