#NO_APP
	.file	"main.c"
	.text
.Ltext0:
	.cfi_sections	.debug_frame
	.align	2
	.globl	interrupthandler1
	.type	interrupthandler1, @function
interrupthandler1:
.LFB0:
	.file 1 "main.c"
	.loc 1 12 0
	.cfi_startproc
	link.w %fp,#0
.LCFI0:
	.cfi_offset 14, -8
	.cfi_def_cfa 14, 8
	.loc 1 13 0
	unlk %fp
	rte
	.cfi_endproc
.LFE0:
	.size	interrupthandler1, .-interrupthandler1
	.align	2
	.globl	interrupthandler2
	.type	interrupthandler2, @function
interrupthandler2:
.LFB1:
	.loc 1 16 0
	.cfi_startproc
	link.w %fp,#0
.LCFI1:
	.cfi_offset 14, -8
	.cfi_def_cfa 14, 8
	.loc 1 17 0
	unlk %fp
	rte
	.cfi_endproc
.LFE1:
	.size	interrupthandler2, .-interrupthandler2
	.align	2
	.globl	interrupthandler3
	.type	interrupthandler3, @function
interrupthandler3:
.LFB2:
	.loc 1 20 0
	.cfi_startproc
	link.w %fp,#0
.LCFI2:
	.cfi_offset 14, -8
	.cfi_def_cfa 14, 8
	.loc 1 21 0
	unlk %fp
	rte
	.cfi_endproc
.LFE2:
	.size	interrupthandler3, .-interrupthandler3
	.align	2
	.globl	interrupthandler4
	.type	interrupthandler4, @function
interrupthandler4:
.LFB3:
	.loc 1 24 0
	.cfi_startproc
	link.w %fp,#0
.LCFI3:
	.cfi_offset 14, -8
	.cfi_def_cfa 14, 8
	.loc 1 25 0
	unlk %fp
	rte
	.cfi_endproc
.LFE3:
	.size	interrupthandler4, .-interrupthandler4
	.align	2
	.globl	interrupthandler5
	.type	interrupthandler5, @function
interrupthandler5:
.LFB4:
	.loc 1 28 0
	.cfi_startproc
	link.w %fp,#0
.LCFI4:
	.cfi_offset 14, -8
	.cfi_def_cfa 14, 8
	.loc 1 29 0
	unlk %fp
	rte
	.cfi_endproc
.LFE4:
	.size	interrupthandler5, .-interrupthandler5
	.align	2
	.globl	interrupthandler6
	.type	interrupthandler6, @function
interrupthandler6:
.LFB5:
	.loc 1 32 0
	.cfi_startproc
	link.w %fp,#0
.LCFI5:
	.cfi_offset 14, -8
	.cfi_def_cfa 14, 8
	.loc 1 33 0
	unlk %fp
	rte
	.cfi_endproc
.LFE5:
	.size	interrupthandler6, .-interrupthandler6
	.align	2
	.globl	interrupthandler7
	.type	interrupthandler7, @function
interrupthandler7:
.LFB6:
	.loc 1 36 0
	.cfi_startproc
	link.w %fp,#0
.LCFI6:
	.cfi_offset 14, -8
	.cfi_def_cfa 14, 8
	.loc 1 37 0
	unlk %fp
	rte
	.cfi_endproc
.LFE6:
	.size	interrupthandler7, .-interrupthandler7
	.section	.text.startup,"ax",@progbits
	.align	2
	.globl	main
	.type	main, @function
main:
.LFB7:
	.loc 1 39 0
	.cfi_startproc
	link.w %fp,#0
.LCFI7:
	.cfi_offset 14, -8
	.cfi_def_cfa 14, 8
	.loc 1 41 0
	jsr timers_setup
.LVL0:
	.loc 1 43 0
	jsr machine_getstatusregister
.LVL1:
	.loc 1 44 0
	and.l #63743,%d0
.LVL2:
	move.l %d0,-(%sp)
	jsr machine_setstatusregister
.LVL3:
	addq.l #4,%sp
.L9:
	jra .L9
	.cfi_endproc
.LFE7:
	.size	main, .-main
	.text
.Letext0:
	.file 2 "/home/daniel/coding/musasim/toolchains/inst/m68k-elf/lib/gcc/m68k-elf/4.7.1/../../../../m68k-elf/include/libunagipai/timers.h"
	.file 3 "/home/daniel/coding/musasim/toolchains/inst/m68k-elf/lib/gcc/m68k-elf/4.7.1/../../../../m68k-elf/include/libunagipai/machine.h"
	.file 4 "/home/daniel/coding/musasim/toolchains/inst/m68k-elf/lib/gcc/m68k-elf/4.7.1/../../../../m68k-elf/include/stdint.h"